	UseSharedSpaces;
	_ZN9Arguments17SharedArchivePathE;
	_ZTV10ASPSOldGen;
	_ZTV10ArrayKlass;
	_ZTV10BFSClosure;
	_ZTV10BarrierSet;
	_ZTV10BlkClosure;
	_ZTV10BlockBegin;
	_ZTV10BranchData;
	_ZTV10BufferBlob;
	_ZTV10CLDClosure;
	_ZTV10CMSGCStats;
	_ZTV10ChangeItem;
	_ZTV10CompileLog;
	_ZTV10DFSClosure;
	_ZTV10DoubleType;
	_ZTV10ElfDecoder;
	_ZTV10G1EdenPool;
	_ZTV10GangWorker;
	_ZTV10Generation;
	_ZTV10HeapRegion;
	_ZTV10IdleGCTask;
	_ZTV10InstanceOf;
	_ZTV10JavaThread;
	_ZTV10LIR_OpCall;
	_ZTV10LIR_OpLock;
	_ZTV10LIR_OprPtr;
	_ZTV10LinkedListI10MallocSiteE;
	_ZTV10LinkedListI20ReservedMemoryRegionE;
	_ZTV10LinkedListI21CommittedMemoryRegionE;
	_ZTV10LinkedListI27VirtualMemoryAllocationSiteE;
	_ZTV10MemoryPool;
	_ZTV10MethodData;
	_ZTV10MethodType;
	_ZTV10NoopGCTask;
	_ZTV10ObjectType;
	_ZTV10OopClosure;
	_ZTV10PSYoungGen;
	_ZTV10PausePhase;
	_ZTV10PerfString;
	_ZTV10Relocation;
	_ZTV10STWGCTimer;
	_ZTV10ScopeValue;
	_ZTV10SharedHeap;
	_ZTV10StateSplit;
	_ZTV10StoreField;
	_ZTV10VtableBlob;
	_ZTV10ciCallSite;
	_ZTV10ciInstance;
	_ZTV10ciJumpData;
	_ZTV10ciMetadata;
	_ZTV10ciObjArray;
	_ZTV10fileStream;
	_ZTV10javaVFrame;
	_ZTV11AccessArray;
	_ZTV11AccessField;
	_ZTV11AdapterBlob;
	_ZTV11AddressType;
	_ZTV11ArgInfoData;
	_ZTV11ArrayLength;
	_ZTV11BlockMerger;
	_ZTV11CLDCallback;
	_ZTV11CardTableRS;
	_ZTV11ChangeWiden;
	_ZTV11CounterData;
	_ZTV11DCmdFactory;
	_ZTV11FieldStream;
	_ZTV11FillClosure;
	_ZTV11G1Allocator;
	_ZTV11G1NewTracer;
	_ZTV11G1OldTracer;
	_ZTV11GCTaskQueue;
	_ZTV11IllegalType;
	_ZTV11Instruction;
	_ZTV11IntConstant;
	_ZTV11KlassStream;
	_ZTV11LIR_Address;
	_ZTV11LIR_OpDelay;
	_ZTV11LIR_OpLabel;
	_ZTV11LoadIndexed;
	_ZTV11MonitorExit;
	_ZTV11NamedThread;
	_ZTV11NewInstance;
	_ZTV11NullDecoder;
	_ZTV11ObjPtrQueue;
	_ZTV11ObjectValue;
	_ZTV11OldGCTracer;
	_ZTV11PhaseSender;
	_ZTV11ProfileCall;
	_ZTV11ProfileData;
	_ZTV11PtrQueueSet;
	_ZTV11ReadClosure;
	_ZTV11RuntimeCall;
	_ZTV11RuntimeStub;
	_ZTV11ScanClosure;
	_ZTV11TableSwitch;
	_ZTV11UnsafeRawOp;
	_ZTV11VM_PrintJNI;
	_ZTV11VersionDCmd;
	_ZTV11VoidClosure;
	_ZTV11adapterNode;
	_ZTV11ciTypeArray;
	_ZTV11entryVFrame;
	_ZTV12ASPSYoungGen;
	_ZTV12ArithmeticOp;
	_ZTV12BlockClosure;
	_ZTV12CMRemarkTask;
	_ZTV12CallTypeData;
	_ZTV12CodeHeapPool;
	_ZTV12ConstantPool;
	_ZTV12DCmdArgumentI16NanoTimeArgumentE;
	_ZTV12DCmdArgumentI18MemorySizeArgumentE;
	_ZTV12DCmdArgumentIP19StringArrayArgumentE;
	_ZTV12DCmdArgumentIPcE;
	_ZTV12DCmdArgumentIbE;
	_ZTV12DCmdArgumentIxE;
	_ZTV12DefNewTracer;
	_ZTV12EventLogBaseI16StringLogMessageE;
	_ZTV12EventLogBaseI9GCMessageE;
	_ZTV12FieldClosure;
	_ZTV12G1MMUTracker;
	_ZTV12G1OldGenPool;
	_ZTV12GCTaskThread;
	_ZTV12HeapDumpDCmd;
	_ZTV12HeapInfoDCmd;
	_ZTV12HistoClosure;
	_ZTV12InstanceType;
	_ZTV12JfrFrameType;
	_ZTV12KlassClosure;
	_ZTV12LIRGenerator;
	_ZTV12LIR_OpBranch;
	_ZTV12LIR_OpRTCall;
	_ZTV12LongConstant;
	_ZTV12LookupSwitch;
	_ZTV12MetadataType;
	_ZTV12MethodStream;
	_ZTV12MonitorEnter;
	_ZTV12MutableSpace;
	_ZTV12NewTypeArray;
	_ZTV12ParNewTracer;
	_ZTV12PatchingStub;
	_ZTV12PeriodicTask;
	_ZTV12PhaseVisitor;
	_ZTV12ProfilerNode;
	_ZTV12RootCallback;
	_ZTV12SpaceClosure;
	_ZTV12SpaceMangler;
	_ZTV12StoreIndexed;
	_ZTV12SweepClosure;
	_ZTV12SystemGCDCmd;
	_ZTV12TenuredSpace;
	_ZTV12ThreadShadow;
	_ZTV12TruncatedSeq;
	_ZTV12UnsafeGetRaw;
	_ZTV12UnsafePutRaw;
	_ZTV12VMUptimeDCmd;
	_ZTV12VM_Operation;
	_ZTV12ValueVisitor;
	_ZTV12WorkerThread;
	_ZTV12WriteClosure;
	_ZTV12YieldClosure;
	_ZTV12ciArrayKlass;
	_ZTV12ciBaseObject;
	_ZTV12ciBranchData;
	_ZTV12ciMemberName;
	_ZTV12ciMethodData;
	_ZTV12ciMethodType;
	_ZTV12ciNullObject;
	_ZTV12compiledNode;
	_ZTV12outputStream;
	_ZTV12stringStream;
	_ZTV13AccessIndexed;
	_ZTV13AccessMonitor;
	_ZTV13ArgumentCount;
	_ZTV13ArrayConstant;
	_ZTV13ArrayCopyStub;
	_ZTV13BarrierGCTask;
	_ZTV13BitMapClosure;
	_ZTV13CE_Eliminator;
	_ZTV13Canonicalizer;
	_ZTV13ClassConstant;
	_ZTV13CollectedHeap;
	_ZTV13ConcEdenSpace;
	_ZTV13DivByZeroStub;
	_ZTV13Fingerprinter;
	_ZTV13FloatConstant;
	_ZTV13G1AllocRegion;
	_ZTV13G1HeapSummary;
	_ZTV13G1Mux2Closure;
	_ZTV13GCHeapSummary;
	_ZTV13GuardedMemory;
	_ZTV13HRRSStatsIter;
	_ZTV13HeapRegionSet;
	_ZTV13InstanceKlass;
	_ZTV13JfrSerializer;
	_ZTV13LIR_OpConvert;
	_ZTV13LIR_OpRoundFP;
	_ZTV13LocationValue;
	_ZTV13MemoryManager;
	_ZTV13MetaspacePool;
	_ZTV13MethodMatcher;
	_ZTV13NewMultiArray;
	_ZTV13ObjArrayKlass;
	_ZTV13ObjectClosure;
	_ZTV13OffsetClosure;
	_ZTV13PSHeapSummary;
	_ZTV13ParNewGenTask;
	_ZTV13PerfByteArray;
	_ZTV13PhiSimplifier;
	_ZTV13ProfileInvoke;
	_ZTV13RelocCallback;
	_ZTV13SafepointBlob;
	_ZTV13ScanRSClosure;
	_ZTV13ServiceThread;
	_ZTV13SignatureInfo;
	_ZTV13SingletonBlob;
	_ZTV13StateRestorer;
	_ZTV13StopOperation;
	_ZTV13StubAssembler;
	_ZTV13StubGenerator;
	_ZTV13StubInterface;
	_ZTV13SymbolClosure;
	_ZTV13SystemProcess;
	_ZTV13ThreadClosure;
	_ZTV13VM_Deoptimize;
	_ZTV13VM_HeapDumper;
	_ZTV13VM_RevokeBias;
	_ZTV13VM_ThreadDump;
	_ZTV13VM_ThreadStop;
	_ZTV13VerifyClosure;
	_ZTV13WatcherThread;
	_ZTV13YoungGCTracer;
	_ZTV13ciArgInfoData;
	_ZTV13ciCounterData;
	_ZTV13defaultStream;
	_ZTV13xmlTextStream;
	_ZTV14CMSParMarkTask;
	_ZTV14CSpaceCounters;
	_ZTV14CallRelocation;
	_ZTV14CardGeneration;
	_ZTV14ClassPathEntry;
	_ZTV14ClassStatsDCmd;
	_ZTV14CompilationLog;
	_ZTV14CompiledRFrame;
	_ZTV14CompilerThread;
	_ZTV14CopyFailedInfo;
	_ZTV14DCmdWithParser;
	_ZTV14DataRelocation;
	_ZTV14DeoptimizeStub;
	_ZTV14DirtyCardQueue;
	_ZTV14DoubleConstant;
	_ZTV14FreeRegionList;
	_ZTV14G1CMOopClosure;
	_ZTV14G1SurvivorPool;
	_ZTV14GCNameConstant;
	_ZTV14GCWhenConstant;
	_ZTV14GenerateOopMap;
	_ZTV14GenerationPool;
	_ZTV14GenerationSpec;
	_ZTV14ImmutableSpace;
	_ZTV14IntervalWalker;
	_ZTV14JfrVMOperationI18JfrRecorderServiceXadL_ZNS0_15safepoint_clearEvEEE;
	_ZTV14JfrVMOperationI18JfrRecorderServiceXadL_ZNS0_15safepoint_writeEvEEE;
	_ZTV14KlassDepChange;
	_ZTV14LIR_OpAllocObj;
	_ZTV14LIR_OpJavaCall;
	_ZTV14LinkedListImplI10MallocSiteLN11ResourceObj15allocation_typeE2EL10MemoryType10ELN17AllocFailStrategy13AllocFailEnumE1EE;
	_ZTV14LinkedListImplI20ReservedMemoryRegionLN11ResourceObj15allocation_typeE2EL10MemoryType10ELN17AllocFailStrategy13AllocFailEnumE1EE;
	_ZTV14LinkedListImplI21CommittedMemoryRegionLN11ResourceObj15allocation_typeE2EL10MemoryType10ELN17AllocFailStrategy13AllocFailEnumE1EE;
	_ZTV14LinkedListImplI27VirtualMemoryAllocationSiteLN11ResourceObj15allocation_typeE2EL10MemoryType10ELN17AllocFailStrategy13AllocFailEnumE1EE;
	_ZTV14MacroAssembler;
	_ZTV14MethodConstant;
	_ZTV14MonitorClosure;
	_ZTV14NewObjectArray;
	_ZTV14ObjectConstant;
	_ZTV14PSPromotionLAB;
	_ZTV14PSRootsClosureILb0EE;
	_ZTV14PSRootsClosureILb1EE;
	_ZTV14PSVirtualSpace;
	_ZTV14ParScanClosure;
	_ZTV14RangeCheckStub;
	_ZTV14RootSetClosureI10BFSClosureE;
	_ZTV14RootSetClosureI10DFSClosureE;
	_ZTV14RootSystemType;
	_ZTV14ScrubRSClosure;
	_ZTV14StartOperation;
	_ZTV14StringEventLog;
	_ZTV14SumUsedClosure;
	_ZTV14ThreadDumpDCmd;
	_ZTV14TypeArrayKlass;
	_ZTV14UnsafeObjectOp;
	_ZTV14UnsafePrefetch;
	_ZTV14VM_GetReceiver;
	_ZTV14VM_RotateGCLog;
	_ZTV14bufferedStream;
	_ZTV14ciCallTypeData;
	_ZTV14ciMethodHandle;
	_ZTV14compiledVFrame;
	_ZTV14externalVFrame;
	_ZTV14oop_Relocation;
	_ZTV15AbstractDecoder;
	_ZTV15AddressConstant;
	_ZTV15AttachOperation;
	_ZTV15CLDToOopClosure;
	_ZTV15CMBitMapClosure;
	_ZTV15ChangeJumpWiden;
	_ZTV15ChangeSwitchPad;
	_ZTV15CodeBlobClosure;
	_ZTV15CollectorPolicy;
	_ZTV15CommandLineDCmd;
	_ZTV15ContiguousSpace;
	_ZTV15DCmdFactoryImplI11VersionDCmdE;
	_ZTV15DCmdFactoryImplI12HeapDumpDCmdE;
	_ZTV15DCmdFactoryImplI12HeapInfoDCmdE;
	_ZTV15DCmdFactoryImplI12SystemGCDCmdE;
	_ZTV15DCmdFactoryImplI12VMUptimeDCmdE;
	_ZTV15DCmdFactoryImplI14ClassStatsDCmdE;
	_ZTV15DCmdFactoryImplI14ThreadDumpDCmdE;
	_ZTV15DCmdFactoryImplI15CommandLineDCmdE;
	_ZTV15DCmdFactoryImplI15RotateGCLogDCmdE;
	_ZTV15DCmdFactoryImplI16PrintVMFlagsDCmdE;
	_ZTV15DCmdFactoryImplI17FinalizerInfoDCmdE;
	_ZTV15DCmdFactoryImplI17JMXStartLocalDCmdE;
	_ZTV15DCmdFactoryImplI17JMXStopRemoteDCmdE;
	_ZTV15DCmdFactoryImplI18ClassHistogramDCmdE;
	_ZTV15DCmdFactoryImplI18JMXStartRemoteDCmdE;
	_ZTV15DCmdFactoryImplI19RunFinalizationDCmdE;
	_ZTV15DCmdFactoryImplI20ClassLoaderStatsDCmdE;
	_ZTV15DCmdFactoryImplI22VMDynamicLibrariesDCmdE;
	_ZTV15DCmdFactoryImplI25PrintSystemPropertiesDCmdE;
	_ZTV15DCmdFactoryImplI26JfrDumpFlightRecordingDCmdE;
	_ZTV15DCmdFactoryImplI26JfrStopFlightRecordingDCmdE;
	_ZTV15DCmdFactoryImplI27JfrCheckFlightRecordingDCmdE;
	_ZTV15DCmdFactoryImplI27JfrStartFlightRecordingDCmdE;
	_ZTV15DCmdFactoryImplI30JfrConfigureFlightRecorderDCmdE;
	_ZTV15DCmdFactoryImplI31JfrUnlockCommercialFeaturesDCmdE;
	_ZTV15DCmdFactoryImplI7NMTDCmdE;
	_ZTV15DCmdFactoryImplI8HelpDCmdE;
	_ZTV15ExceptionObject;
	_ZTV15FastScanClosure;
	_ZTV15Filtering_DCTOC;
	_ZTV15G1CollectedHeap;
	_ZTV15G1ParCopyHelper;
	_ZTV15G1ParVerifyTask;
	_ZTV15GCCauseConstant;
	_ZTV15GCMemoryManager;
	_ZTV15GenDCmdArgument;
	_ZTV15GenSpaceMangler;
	_ZTV15GenerationSizer;
	_ZTV15GrowableElement;
	_ZTV15HeapRegionDCTOC;
	_ZTV15ICStubInterface;
	_ZTV15JNILocalsDumper;
	_ZTV15JvmtiBreakpoint;
	_ZTV15LIR_OpArrayCopy;
	_ZTV15LIR_OpTypeCheck;
	_ZTV15MarkSweepPolicy;
	_ZTV15ModUnionClosure;
	_ZTV15MonitorExitStub;
	_ZTV15MultiBranchData;
	_ZTV15NewInstanceStub;
	_ZTV15OSThreadSampler;
	_ZTV15PerfLongCounter;
	_ZTV15PerfLongVariant;
	_ZTV15PseudoScopeMark;
	_ZTV15ReferencePolicy;
	_ZTV15RotateGCLogDCmd;
	_ZTV15SerialOldTracer;
	_ZTV15StatSamplerTask;
	_ZTV15ThreadRootsTask;
	_ZTV15UnsafeGetObject;
	_ZTV15UnsafePutObject;
	_ZTV15VM_GC_Operation;
	_ZTV15VM_LinuxDllLoad;
	_ZTV15VM_PrintThreads;
	_ZTV15VirtualCallData;
	_ZTV15ciInstanceKlass;
	_ZTV15ciObjArrayKlass;
	_ZTV15ciReturnAddress;
	_ZTV15gcLogFileStream;
	_ZTV15interpretedNode;
	_ZTV15poll_Relocation;
	_ZTV15runtimeStubNode;
	_ZTV16AbstractCompiler;
	_ZTV16AbstractGangTask;
	_ZTV16AbstractWorkGang;
	_ZTV16BlockOffsetArray;
	_ZTV16BlockOffsetTable;
	_ZTV16CMSMemoryManager;
	_ZTV16CMSParRemarkTask;
	_ZTV16ChunkPoolCleaner;
	_ZTV16CompactibleSpace;
	_ZTV16ComputeCallStack;
	_ZTV16ConstantIntValue;
	_ZTV16DefNewGeneration;
	_ZTV16DoNothingClosure;
	_ZTV16DumpAllocClosure;
	_ZTV16FilteringClosure;
	_ZTV16FlatProfilerTask;
	_ZTV16FlexibleGangTask;
	_ZTV16FlexibleWorkGang;
	_ZTV16G1ParCopyClosureIL9G1Barrier0EL6G1Mark0EE;
	_ZTV16G1ParCopyClosureIL9G1Barrier0EL6G1Mark1EE;
	_ZTV16G1ParCopyClosureIL9G1Barrier0EL6G1Mark2EE;
	_ZTV16G1ParCopyClosureIL9G1Barrier1EL6G1Mark0EE;
	_ZTV16G1ParCopyClosureIL9G1Barrier2EL6G1Mark0EE;
	_ZTV16G1ParCopyClosureIL9G1Barrier2EL6G1Mark1EE;
	_ZTV16G1ParCopyClosureIL9G1Barrier2EL6G1Mark2EE;
	_ZTV16G1ParGCAllocator;
	_ZTV16G1ParNoteEndTask;
	_ZTV16G1ParScanClosure;
	_ZTV16G1PreBarrierStub;
	_ZTV16G1TriggerClosure;
	_ZTV16G1YCTypeConstant;
	_ZTV16GCPolicyCounters;
	_ZTV16GenCollectedHeap;
	_ZTV16HRSMtSafeChecker;
	_ZTV16HeapObjectDumper;
	_ZTV16InstanceConstant;
	_ZTV16InstanceRefKlass;
	_ZTV16JNIGlobalsDumper;
	_ZTV16JfrThreadSampler;
	_ZTV16JvmtiAgentThread;
	_ZTV16KeepAliveClosure;
	_ZTV16KlassInfoClosure;
	_ZTV16KlassScanClosure;
	_ZTV16LIR_OpAllocArray;
	_ZTV16LRUMaxHeapPolicy;
	_ZTV16LinearScanWalker;
	_ZTV16MSCMemoryManager;
	_ZTV16MallocSiteWalker;
	_ZTV16MemRegionClosure;
	_ZTV16ModRefBarrierSet;
	_ZTV16MonitorEnterStub;
	_ZTV16MutableNUMASpace;
	_ZTV16NewTypeArrayStub;
	_ZTV16NullCheckVisitor;
	_ZTV16OldGCAllocRegion;
	_ZTV16OopsInGenClosure;
	_ZTV16PSGenerationPool;
	_ZTV16PSIsAliveClosure;
	_ZTV16ParGCAllocBuffer;
	_ZTV16ParNewGeneration;
	_ZTV16ParRebuildRSTask;
	_ZTV16PerfLongConstant;
	_ZTV16PerfLongVariable;
	_ZTV16PrintVMFlagsDCmd;
	_ZTV16ReceiverTypeData;
	_ZTV16RefProcTaskProxy;
	_ZTV16ResultTypeFinder;
	_ZTV16SATBMarkQueueSet;
	_ZTV16SerializeClosure;
	_ZTV16SignatureChekker;
	_ZTV16SimpleCompPolicy;
	_ZTV16SortedLinkedListI10MallocSiteXadL_Z19compare_malloc_siteRKS0_S2_EELN11ResourceObj15allocation_typeE2EL10MemoryType10ELN17AllocFailStrategy13AllocFailEnumE1EE;
	_ZTV16SortedLinkedListI10MallocSiteXadL_Z19compare_malloc_sizeRKS0_S2_EELN11ResourceObj15allocation_typeE2EL10MemoryType10ELN17AllocFailStrategy13AllocFailEnumE1EE;
	_ZTV16SortedLinkedListI10MallocSiteXadL_Z28compare_malloc_site_and_typeRKS0_S2_EELN11ResourceObj15allocation_typeE2EL10MemoryType10ELN17AllocFailStrategy13AllocFailEnumE1EE;
	_ZTV16SortedLinkedListI20ReservedMemoryRegionXadL_Z27compare_virtual_memory_baseRKS0_S2_EELN11ResourceObj15allocation_typeE2EL10MemoryType10ELN17AllocFailStrategy13AllocFailEnumE1EE;
	_ZTV16SortedLinkedListI20ReservedMemoryRegionXadL_Z28compare_reserved_region_baseRKS0_S2_EELN11ResourceObj15allocation_typeE2EL10MemoryType10ELN17AllocFailStrategy13AllocFailEnumE1EE;
	_ZTV16SortedLinkedListI21CommittedMemoryRegionXadL_Z24compare_committed_regionRKS0_S2_EELN11ResourceObj15allocation_typeE2EL10MemoryType10ELN17AllocFailStrategy13AllocFailEnumE1EE;
	_ZTV16SortedLinkedListI27VirtualMemoryAllocationSiteXadL_Z23compare_allocation_siteRKS0_S2_EELN11ResourceObj15allocation_typeE2EL10MemoryType10ELN17AllocFailStrategy13AllocFailEnumE1EE;
	_ZTV16SortedLinkedListI27VirtualMemoryAllocationSiteXadL_Z27compare_virtual_memory_siteRKS0_S2_EELN11ResourceObj15allocation_typeE2EL10MemoryType10ELN17AllocFailStrategy13AllocFailEnumE1EE;
	_ZTV16SortedLinkedListI27VirtualMemoryAllocationSiteXadL_Z27compare_virtual_memory_sizeRKS0_S2_EELN11ResourceObj15allocation_typeE2EL10MemoryType10ELN17AllocFailStrategy13AllocFailEnumE1EE;
	_ZTV16StatisticsWalker;
	_ZTV16StealMarkingTask;
	_ZTV16UseCountComputer;
	_ZTV16VM_CGC_Operation;
	_ZTV16VM_CMS_Operation;
	_ZTV16VM_FindDeadlocks;
	_ZTV16VM_G1CollectFull;
	_ZTV16VM_GetFrameCount;
	_ZTV16VM_GetOrSetLocal;
	_ZTV16VM_GetStackTrace;
	_ZTV16VM_UnlinkSymbols;
	_ZTV16VerifyOopClosure;
	_ZTV16ciTypeArrayKlass;
	_ZTV17AbstractAssembler;
	_ZTV17AlwaysClearPolicy;
	_ZTV17AlwaysTrueClosure;
	_ZTV17BeginSweepClosureI9FreeChunk16AdaptiveFreeListIS0_EE;
	_ZTV17BeginSweepClosureI9Metablock8FreeListIS0_EE;
	_ZTV17BeginSweepClosureI9Metachunk8FreeListIS0_EE;
	_ZTV17BlkClosureCareful;
	_ZTV17BoolObjectClosure;
	_ZTV17C1_MacroAssembler;
	_ZTV17CMSIsAliveClosure;
	_ZTV17CallSiteDepChange;
	_ZTV17CardTableModRefBS;
	_ZTV17ClassPathDirEntry;
	_ZTV17ClassPathZipEntry;
	_ZTV17ClassStatsClosure;
	_ZTV17CompilationPolicy;
	_ZTV17ComputeEntryStack;
	_ZTV17ConcurrentGCTimer;
	_ZTV17ConstantLongValue;
	_ZTV17CopyMemoryManager;
	_ZTV17DeoptimizedRFrame;
	_ZTV17DirtyCardQueueSet;
	_ZTV17FinalizerInfoDCmd;
	_ZTV17G1CodeBlobClosure;
	_ZTV17G1CollectorPolicy;
	_ZTV17G1HeapRegionTable;
	_ZTV17G1MMUTrackerQueue;
	_ZTV17G1MemoryPoolSuper;
	_ZTV17G1ParClosureSuper;
	_ZTV17G1PostBarrierStub;
	_ZTV17GenCompactClosure;
	_ZTV17HeapRegionClosure;
	_ZTV17HeapRegionSetBase;
	_ZTV17InterpretedRFrame;
	_ZTV17JMXStartLocalDCmd;
	_ZTV17JMXStopRemoteDCmd;
	_ZTV17JfrThreadConstant;
	_ZTV17KlassToOopClosure;
	_ZTV17LIR_OpProfileCall;
	_ZTV17LIR_OpProfileType;
	_ZTV17LIR_OpUpdateCRC32;
	_ZTV17MarkFromRootsTask;
	_ZTV17MemDetailReporter;
	_ZTV17MonitorAccessStub;
	_ZTV17MonitorUsedDumper;
	_ZTV17PSOldPromotionLAB;
	_ZTV17ParallelOldTracer;
	_ZTV17ProfileReturnType;
	_ZTV17PushOrMarkClosure;
	_ZTV17RefProcPhase1Task;
	_ZTV17RefProcPhase2Task;
	_ZTV17RefProcPhase3Task;
	_ZTV17RelocatorListener;
	_ZTV17RootResolutionSet;
	_ZTV17SATBBufferClosure;
	_ZTV17ScavengeRootsTask;
	_ZTV17SetHotnessClosure;
	_ZTV17SignatureIterator;
	_ZTV17StickyClassDumper;
	_ZTV17StubCodeGenerator;
	_ZTV17SymbolTableDumper;
	_ZTV17TaskQueueSetSuper;
	_ZTV17TenuredGeneration;
	_ZTV17TreeCensusClosureI9FreeChunk16AdaptiveFreeListIS0_EE;
	_ZTV17TreeCensusClosureI9Metablock8FreeListIS0_EE;
	_ZTV17TreeCensusClosureI9Metachunk8FreeListIS0_EE;
	_ZTV17TreeSearchClosureI9FreeChunk16AdaptiveFreeListIS0_EE;
	_ZTV17TreeSearchClosureI9Metablock8FreeListIS0_EE;
	_ZTV17TreeSearchClosureI9Metachunk8FreeListIS0_EE;
	_ZTV17UpdateOnlyClosure;
	_ZTV17VM_BulkRevokeBias;
	_ZTV17VM_ForceSafepoint;
	_ZTV17VM_GenCollectFull;
	_ZTV17VerifyLiveClosure;
	_ZTV17VerifyOopsClosure;
	_ZTV17ciMultiBranchData;
	_ZTV17ciVirtualCallData;
	_ZTV17interpretedVFrame;
	_ZTV18ASParNewGeneration;
	_ZTV18AdaptiveSizePolicy;
	_ZTV18AlwaysFalseClosure;
	_ZTV18BlkPrintingClosure;
	_ZTV18CMSConcMarkingTask;
	_ZTV18CardTableExtension;
	_ZTV18ClassHistogramDCmd;
	_ZTV18ClassUnloadTypeSet;
	_ZTV18ConcurrentGCThread;
	_ZTV18CountHandleClosure;
	_ZTV18CriticalEdgeFinder;
	_ZTV18DeoptimizationBlob;
	_ZTV18DetectScavengeRoot;
	_ZTV18ExtendedOopClosure;
	_ZTV18G1BlockOffsetArray;
	_ZTV18G1BlockOffsetTable;
	_ZTV18G1CMIsAliveClosure;
	_ZTV18G1DefaultAllocator;
	_ZTV18G1KeepAliveClosure;
	_ZTV18G1KlassScanClosure;
	_ZTV18G1ParCleanupCTTask;
	_ZTV18G1ParGCAllocBuffer;
	_ZTV18GenCollectorPolicy;
	_ZTV18GenerationCounters;
	_ZTV18HighResTimeSampler;
	_ZTV18InstructionVisitor;
	_ZTV18JMXStartRemoteDCmd;
	_ZTV18JNI_ArgumentPusher;
	_ZTV18JfrArtifactClosure;
	_ZTV18LazyClassPathEntry;
	_ZTV18MemRegionClosureRO;
	_ZTV18MemSummaryReporter;
	_ZTV18ModUnionClosurePar;
	_ZTV18MutatorAllocRegion;
	_ZTV18NewObjectArrayStub;
	_ZTV18ObjectToOopClosure;
	_ZTV18PSKeepAliveClosure;
	_ZTV18PSRefProcTaskProxy;
	_ZTV18ParametersTypeData;
	_ZTV18PerfStringConstant;
	_ZTV18PerfStringVariable;
	_ZTV18PrintRegionClosure;
	_ZTV18PushAndMarkClosure;
	_ZTV18RefProcEnqueueTask;
	_ZTV18RemarkKlassClosure;
	_ZTV18ScanWeakRefClosure;
	_ZTV18SetupItableClosure;
	_ZTV18ShortLoopOptimizer;
	_ZTV18SignatureTypeNames;
	_ZTV18SimpleRootsClosure;
	_ZTV18TagObjectCollector;
	_ZTV18ThreadTimesClosure;
	_ZTV18UnsafePrefetchRead;
	_ZTV18UpdateRSOopClosure;
	_ZTV18UpdateRSetDeferred;
	_ZTV18VM_DeoptimizeFrame;
	_ZTV18VM_RedefineClasses;
	_ZTV18VerifyCTGenClosure;
	_ZTV18VerifyFieldClosure;
	_ZTV18VerifyKlassClosure;
	_ZTV18VerifyRootsClosure;
	_ZTV18ciReceiverTypeData;
	_ZTV18staticBufferStream;
	_ZTV19BufferingOopClosure;
	_ZTV19CMSATBBufferClosure;
	_ZTV19CMSKeepAliveClosure;
	_ZTV19CMSRefProcTaskProxy;
	_ZTV19CollectedMemoryPool;
	_ZTV19ConstantDoubleValue;
	_ZTV19ContiguousSpacePool;
	_ZTV19CounterOverflowStub;
	_ZTV19EntryFrameOopFinder;
	_ZTV19FilterIntoCSClosure;
	_ZTV19FilteredFieldStream;
	_ZTV19FindInstanceClosure;
	_ZTV19FreeBlockDictionaryI9FreeChunkE;
	_ZTV19FreeBlockDictionaryI9MetablockE;
	_ZTV19FreeBlockDictionaryI9MetachunkE;
	_ZTV19FreeListSpace_DCTOC;
	_ZTV19G1BiasedMappedArrayI11InCSetStateE;
	_ZTV19G1BiasedMappedArrayIP10HeapRegionE;
	_ZTV19G1BiasedMappedArrayIbE;
	_ZTV19G1BiasedMappedArrayIjE;
	_ZTV19G1ParFinalCountTask;
	_ZTV19G1STWIsAliveClosure;
	_ZTV19G1StringDedupThread;
	_ZTV19GeneratePairingInfo;
	_ZTV19GenericTaskQueueSetI16GenericTaskQueueIP7oopDescL10MemoryType5ELj16384EELS3_5EE;
	_ZTV19GenericTaskQueueSetI17OverflowTaskQueueI12ObjArrayTaskL10MemoryType5ELj4096EELS2_5EE;
	_ZTV19GenericTaskQueueSetI17OverflowTaskQueueI8StarTaskL10MemoryType1ELj16384EELS2_1EE;
	_ZTV19GenericTaskQueueSetI17OverflowTaskQueueI8StarTaskL10MemoryType5ELj16384EELS2_5EE;
	_ZTV19GenericTaskQueueSetI17OverflowTaskQueueIjL10MemoryType7ELj16384EELS1_1EE;
	_ZTV19GenericTaskQueueSetI6PaddedI16GenericTaskQueueIP7oopDescL10MemoryType5ELj16384EELj64EELS4_5EE;
	_ZTV19ICacheStubGenerator;
	_ZTV19InstanceMirrorKlass;
	_ZTV19JvmtiEventCollector;
	_ZTV19JvmtiMonitorClosure;
	_ZTV19KnownGarbageClosure;
	_ZTV19MarkRefsIntoClosure;
	_ZTV19MaskFillerForNative;
	_ZTV19MutableSpaceMangler;
	_ZTV19NonTieredCompPolicy;
	_ZTV19NullCheckEliminator;
	_ZTV19OldToYoungRootsTask;
	_ZTV19OopMapForCacheEntry;
	_ZTV19PSYoungPromotionLAB;
	_ZTV19ParKeepAliveClosure;
	_ZTV19ParKnownGarbageTask;
	_ZTV19ParNewMemoryManager;
	_ZTV19PredicateFailedStub;
	_ZTV19PromotionFailedInfo;
	_ZTV19RangeCheckPredicate;
	_ZTV19RefEnqueueTaskProxy;
	_ZTV19RefProcTaskExecutor;
	_ZTV19RestoreMarksClosure;
	_ZTV19RunFinalizationDCmd;
	_ZTV19SharedPathsMiscInfo;
	_ZTV19SimpleExceptionStub;
	_ZTV19SpeculativeTrapData;
	_ZTV19ThreadStateConstant;
	_ZTV19UnsafePrefetchWrite;
	_ZTV19VM_CMS_Final_Remark;
	_ZTV19VM_CMS_Initial_Mark;
	_ZTV19VM_ChangeSingleStep;
	_ZTV19VM_GetFrameLocation;
	_ZTV19VerifyHandleClosure;
	_ZTV19VerifyMarkedClosure;
	_ZTV19VerifyRegionClosure;
	_ZTV19VerifyRemSetClosure;
	_ZTV19VirtualCallTypeData;
	_ZTV19VirtualMemoryWalker;
	_ZTV19metadata_Relocation;
	_ZTV19setTreeHintsClosureI9FreeChunk16AdaptiveFreeListIS0_EE;
	_ZTV19setTreeHintsClosureI9Metablock8FreeListIS0_EE;
	_ZTV19setTreeHintsClosureI9Metachunk8FreeListIS0_EE;
	_ZTV20ArgumentSizeComputer;
	_ZTV20BinaryTreeDictionaryI9FreeChunk16AdaptiveFreeListIS0_EE;
	_ZTV20BinaryTreeDictionaryI9Metablock8FreeListIS0_EE;
	_ZTV20BinaryTreeDictionaryI9Metachunk8FreeListIS0_EE;
	_ZTV20CLDClaimStateClosure;
	_ZTV20CMRootRegionScanTask;
	_ZTV20CheckForPreciseMarks;
	_ZTV20CheckForUnmarkedOops;
	_ZTV20ClassLoaderStatsDCmd;
	_ZTV20ClearBitmapHRClosure;
	_ZTV20CodeBlobToOopClosure;
	_ZTV20CodeBlobTypeConstant;
	_ZTV20ConcurrentMarkThread;
	_ZTV20ConstantOopReadValue;
	_ZTV20ContiguousSpaceDCTOC;
	_ZTV20DumpEventInfoClosure;
	_ZTV20EdenMutableSpacePool;
	_ZTV20EndTreeSearchClosureI9FreeChunk16AdaptiveFreeListIS0_EE;
	_ZTV20EndTreeSearchClosureI9Metablock8FreeListIS0_EE;
	_ZTV20EndTreeSearchClosureI9Metachunk8FreeListIS0_EE;
	_ZTV20EvacuationFailedInfo;
	_ZTV20G1AlwaysAliveClosure;
	_ZTV20G1CMRefProcTaskProxy;
	_ZTV20G1CollectorPolicyExt;
	_ZTV20G1GenerationCounters;
	_ZTV20G1ParScrubRemSetTask;
	_ZTV20GCHeapSummaryVisitor;
	_ZTV20GcThreadCountClosure;
	_ZTV20GenGCEpilogueClosure;
	_ZTV20GenGCPrologueClosure;
	_ZTV20GenerationUsedHelper;
	_ZTV20GlobalValueNumbering;
	_ZTV20JNILocalRootsClosure;
	_ZTV20JfrThreadConstantSet;
	_ZTV20LIR_OpCompareAndSwap;
	_ZTV20LRUCurrentHeapPolicy;
	_ZTV20LinuxAttachOperation;
	_ZTV20LoadedClassesClosure;
	_ZTV20MarkFromRootsClosure;
	_ZTV20MetadataTypeConstant;
	_ZTV20MoveAndUpdateClosure;
	_ZTV20NonStaticFieldFiller;
	_ZTV20ObjectClosureCareful;
	_ZTV20OldObjectVMOperation;
	_ZTV20PSAdaptiveSizePolicy;
	_ZTV20PSGenerationCounters;
	_ZTV20ParMarkBitMapClosure;
	_ZTV20ParallelScavengeHeap;
	_ZTV20PerfLongSampleHelper;
	_ZTV20PrecleanKlassClosure;
	_ZTV20SignatureTypePrinter;
	_ZTV20SubstitutionResolver;
	_ZTV20TerminatorTerminator;
	_ZTV20UpwardsObjectClosure;
	_ZTV20VM_ChangeBreakpoints;
	_ZTV20VM_GC_HeapInspection;
	_ZTV20VM_GetAllStackTraces;
	_ZTV20VM_HeapWalkOperation;
	_ZTV20VM_WhiteBoxOperation;
	_ZTV20VerifyAllBlksClosure;
	_ZTV20VerifyAllOopsClosure;
	_ZTV20VerifyCTSpaceClosure;
	_ZTV20VmThreadCountClosure;
	_ZTV20WaitForBarrierGCTask;
	_ZTV20ciParametersTypeData;
	_ZTV20unknown_compiledNode;
	_ZTV21AdjustPointersClosure;
	_ZTV21CMSAdaptiveSizePolicy;
	_ZTV21CMSParInitialMarkTask;
	_ZTV21CardTableEntryClosure;
	_ZTV21CleanExtraDataClosure;
	_ZTV21ConstantOopWriteValue;
	_ZTV21DirtyCardToOopClosure;
	_ZTV21G1OldGenMemoryManager;
	_ZTV21G1RegionToSpaceMapper;
	_ZTV21G1STWRefProcTaskProxy;
	_ZTV21G1SpaceCompactClosure;
	_ZTV21G1VerificationClosure;
	_ZTV21GenerationIsInClosure;
	_ZTV21ImplicitNullCheckStub;
	_ZTV21MarkActivationClosure;
	_ZTV21MemDetailDiffReporter;
	_ZTV21NarrowOopModeConstant;
	_ZTV21NoYoungRegionsClosure;
	_ZTV21PSRefEnqueueTaskProxy;
	_ZTV21PSRefProcTaskExecutor;
	_ZTV21ParScanWeakRefClosure;
	_ZTV21Par_PushOrMarkClosure;
	_ZTV21PrintFreeListsClosureI9FreeChunk16AdaptiveFreeListIS0_EE;
	_ZTV21PrintFreeListsClosureI9Metablock8FreeListIS0_EE;
	_ZTV21PrintFreeListsClosureI9Metachunk8FreeListIS0_EE;
	_ZTV21RecordInstanceClosure;
	_ZTV21ReferenceTypeConstant;
	_ZTV21SimpleThresholdPolicy;
	_ZTV21SurrogateLockerThread;
	_ZTV21SurvivorGCAllocRegion;
	_ZTV21TaskQueueSetSuperImplIL10MemoryType1EE;
	_ZTV21TaskQueueSetSuperImplIL10MemoryType5EE;
	_ZTV21UnsafeGetAndSetObject;
	_ZTV21UpdateDensePrefixTask;
	_ZTV21VM_GetCurrentLocation;
	_ZTV21VM_ParallelGCSystemGC;
	_ZTV21ValueNumberingEffects;
	_ZTV21ValueNumberingVisitor;
	_ZTV21WBIsKlassAliveClosure;
	_ZTV21ciSpeculativeTrapData;
	_ZTV21ciVirtualCallTypeData;
	_ZTV21setTreeSurplusClosureI9FreeChunk16AdaptiveFreeListIS0_EE;
	_ZTV21setTreeSurplusClosureI9Metablock8FreeListIS0_EE;
	_ZTV21setTreeSurplusClosureI9Metachunk8FreeListIS0_EE;
	_ZTV22ArgumentOffsetComputer;
	_ZTV22CMCountDataClosureBase;
	_ZTV22CMSParKeepAliveClosure;
	_ZTV22CMSRefEnqueueTaskProxy;
	_ZTV22CMSRefProcTaskExecutor;
	_ZTV22CalcLiveObjectsClosure;
	_ZTV22CodeCacheMemoryManager;
	_ZTV22CountInterfacesClosure;
	_ZTV22G1ParPushHeapRSClosure;
	_ZTV22G1ParallelCleaningTask;
	_ZTV22G1RemarkThreadsClosure;
	_ZTV22G1STWDrainQueueClosure;
	_ZTV22GenTimeOfLastGCClosure;
	_ZTV22JfrThreadGroupConstant;
	_ZTV22JniPeriodicCheckerTask;
	_ZTV22MarkDeadObjectsClosure;
	_ZTV22MarkingCodeBlobClosure;
	_ZTV22MemSummaryDiffReporter;
	_ZTV22MetaspaceMemoryManager;
	_ZTV22MutableSpaceUsedHelper;
	_ZTV22NotifyingBarrierGCTask;
	_ZTV22OffsetTableContigSpace;
	_ZTV22PSScavengeKlassClosure;
	_ZTV22ParNewRefProcTaskProxy;
	_ZTV22Par_ConcMarkingClosure;
	_ZTV22Par_PushAndMarkClosure;
	_ZTV22ParallelScavengeTracer;
	_ZTV22ParallelTaskTerminator;
	_ZTV22PathToGcRootsOperation;
	_ZTV22PrintTreeCensusClosureI9FreeChunk16AdaptiveFreeListIS0_EE;
	_ZTV22PrintTreeCensusClosureI9Metablock8FreeListIS0_EE;
	_ZTV22PrintTreeCensusClosureI9Metachunk8FreeListIS0_EE;
	_ZTV22ReferenceLocateClosure;
	_ZTV22ReleasingBarrierGCTask;
	_ZTV22ResolveOopMapConflicts;
	_ZTV22ThreadRootsMarkingTask;
	_ZTV22VMDynamicLibrariesDCmd;
	_ZTV22VM_EnableBiasedLocking;
	_ZTV22VM_EnterInterpOnlyMode;
	_ZTV22VM_ForceAsyncSafepoint;
	_ZTV22VM_GetOwnedMonitorInfo;
	_ZTV22VerifyCleanCardClosure;
	_ZTV22YoungRefCounterClosure;
	_ZTV22clearTreeCensusClosureI9FreeChunk16AdaptiveFreeListIS0_EE;
	_ZTV22clearTreeCensusClosureI9Metablock8FreeListIS0_EE;
	_ZTV22clearTreeCensusClosureI9Metachunk8FreeListIS0_EE;
	_ZTV22poll_return_Relocation;
	_ZTV22static_call_Relocation;
	_ZTV22static_stub_Relocation;
	_ZTV23ArrayStoreExceptionStub;
	_ZTV23AscendTreeCensusClosureI9FreeChunk16AdaptiveFreeListIS0_EE;
	_ZTV23AscendTreeCensusClosureI9Metablock8FreeListIS0_EE;
	_ZTV23AscendTreeCensusClosureI9Metachunk8FreeListIS0_EE;
	_ZTV23CLDToKlassAndOopClosure;
	_ZTV23CMConcurrentMarkingTask;
	_ZTV23CheckForUnmarkedObjects;
	_ZTV23ClassLoaderStatsClosure;
	_ZTV23EnableBiasedLockingTask;
	_ZTV23FlagValueOriginConstant;
	_ZTV23G1AdjustPointersClosure;
	_ZTV23G1CMRefEnqueueTaskProxy;
	_ZTV23G1CMRefProcTaskExecutor;
	_ZTV23G1DefaultParGCAllocator;
	_ZTV23G1OldGenerationCounters;
	_ZTV23G1PrepareCompactClosure;
	_ZTV23G1RootRegionScanClosure;
	_ZTV23G1SATBCardTableModRefBS;
	_ZTV23G1YoungGenMemoryManager;
	_ZTV23GetRSThreadVTimeClosure;
	_ZTV23InflatedMonitorsClosure;
	_ZTV23InterfaceVisiterClosure;
	_ZTV23InterpreterFrameClosure;
	_ZTV23JNI_ArgumentPusherArray;
	_ZTV23JNI_ArgumentPusherVaArg;
	_ZTV23JfrArtifactCallbackHostIPK15ClassLoaderData16CompositeFunctorIS2_21JfrArtifactWriterHostI35JfrPredicatedArtifactWriterImplHostIS2_15UniquePredicateIS2_XadL_Z17_compare_cld_ptr_RKS2_S8_EEEXadL_Z28write__artifact__classloaderP19JfrCheckpointWriterP14JfrArtifactSetPKvEEELj37EE13ClearArtifactIS2_EEE;
	_ZTV23JfrArtifactCallbackHostIPK15ClassLoaderData16CompositeFunctorIS2_S3_IS2_21JfrArtifactWriterHostI35JfrPredicatedArtifactWriterImplHostIS2_13LeakPredicateIS2_EXadL_Z28write__artifact__classloaderP19JfrCheckpointWriterP14JfrArtifactSetPKvEEELj37EES4_IS5_IS2_15UniquePredicateIS2_XadL_Z17_compare_cld_ptr_RKS2_SI_EEEXadL_Z28write__artifact__classloaderS9_SB_SD_EEELj37EEE13ClearArtifactIS2_EEE;
	_ZTV23JfrArtifactCallbackHostIPK5Klass16CompositeFunctorIS2_21JfrArtifactWriterHostI25JfrArtifactWriterImplHostIS2_XadL_Z22write__artifact__klassP19JfrCheckpointWriterP14JfrArtifactSetPKvEEELj20EE24KlassArtifactRegistratorEE;
	_ZTV23JfrArtifactCallbackHostIPK5Klass16CompositeFunctorIS2_S3_IS2_S3_IS2_21TagLeakpKlassArtifact21JfrArtifactWriterHostI35JfrPredicatedArtifactWriterImplHostIS2_13LeakPredicateIS2_EXadL_Z22write__artifact__klassP19JfrCheckpointWriterP14JfrArtifactSetPKvEEELj20EEES5_I25JfrArtifactWriterImplHostIS2_XadL_Z22write__artifact__klassSA_SC_SE_EEELj20EEE24KlassArtifactRegistratorEE;
	_ZTV23JfrNetworkInterfaceName;
	_ZTV23MetadataAwareOopClosure;
	_ZTV23NativeSignatureIterator;
	_ZTV23OSThreadSamplerCallback;
	_ZTV23OopsInHeapRegionClosure;
	_ZTV23OopsInKlassOrGenClosure;
	_ZTV23PSScavengeMemoryManager;
	_ZTV23PSVirtualSpaceHighToLow;
	_ZTV23ParGCAllocBufferWithBOT;
	_ZTV23Par_MarkRefsIntoClosure;
	_ZTV23ResetClaimValuesClosure;
	_ZTV23StaticFinalFieldPrinter;
	_ZTV23VMOperationTypeConstant;
	_ZTV23VM_CollectForAllocation;
	_ZTV23VM_G1IncCollectionPause;
	_ZTV23VM_HeapIterateOperation;
	_ZTV23runtime_call_Relocation;
	_ZTV23section_word_Relocation;
	_ZTV23virtual_call_Relocation;
	_ZTV24CMSConcMarkingTerminator;
	_ZTV24CardTableModRefBSForCTRS;
	_ZTV24ClearNoncleanCardWrapper;
	_ZTV24CompactibleFreeListSpace;
	_ZTV24CompressedKlassSpacePool;
	_ZTV24ConcurrentG1RefineThread;
	_ZTV24DescendTreeCensusClosureI9FreeChunk16AdaptiveFreeListIS0_EE;
	_ZTV24DescendTreeCensusClosureI9Metablock8FreeListIS0_EE;
	_ZTV24DescendTreeCensusClosureI9Metachunk8FreeListIS0_EE;
	_ZTV24DescendTreeSearchClosureI9FreeChunk16AdaptiveFreeListIS0_EE;
	_ZTV24DescendTreeSearchClosureI9Metablock8FreeListIS0_EE;
	_ZTV24DescendTreeSearchClosureI9Metachunk8FreeListIS0_EE;
	_ZTV24FilterOutOfRegionClosure;
	_ZTV24G1AggregateCountDataTask;
	_ZTV24G1CardCountsClearClosure;
	_ZTV24G1HeapRegionTypeConstant;
	_ZTV24G1MappingChangedListener;
	_ZTV24G1OffsetTableContigSpace;
	_ZTV24G1RedirtyLoggedCardsTask;
	_ZTV24G1STWRefEnqueueTaskProxy;
	_ZTV24G1STWRefProcTaskExecutor;
	_ZTV24GCAdaptivePolicyCounters;
	_ZTV24GCHeapSummaryEventSender;
	_ZTV24GenAdjustPointersClosure;
	_ZTV24InstanceClassLoaderKlass;
	_ZTV24JfrNativeSamplerCallback;
	_ZTV24MethodHandlesAdapterBlob;
	_ZTV24NoteStartOfMarkHRClosure;
	_ZTV24PSMarkSweepMemoryManager;
	_ZTV24PSPromotionFailedClosure;
	_ZTV24ParKnownGarbageHRClosure;
	_ZTV24Par_MarkFromRootsClosure;
	_ZTV24PostMCRemSetClearClosure;
	_ZTV24PushAndMarkVerifyClosure;
	_ZTV24RebuildRegionSetsClosure;
	_ZTV24SurvivorMutableSpacePool;
	_ZTV24TypedMethodOptionMatcherIPKcE;
	_ZTV24TypedMethodOptionMatcherIbE;
	_ZTV24TypedMethodOptionMatcherIiE;
	_ZTV24TypedMethodOptionMatcherIjE;
	_ZTV24VM_GetObjectMonitorUsage;
	_ZTV24VM_ReportJavaOutOfMemory;
	_ZTV24VerifyLivenessOopClosure;
	_ZTV24VerifyRegionListsClosure;
	_ZTV24YieldingFlexibleGangTask;
	_ZTV24YieldingFlexibleWorkGang;
	_ZTV24external_word_Relocation;
	_ZTV24internal_word_Relocation;
	_ZTV25CheckBitmapClearHRClosure;
	_ZTV25ClearKlassModUnionClosure;
	_ZTV25CompiledArgumentOopFinder;
	_ZTV25CompilerPhaseTypeConstant;
	_ZTV25ConcurrentMarkSweepPolicy;
	_ZTV25ConcurrentMarkSweepThread;
	_ZTV25ContiguousSpaceUsedHelper;
	_ZTV25DrainStacksCompactionTask;
	_ZTV25G1CopyingKeepAliveClosure;
	_ZTV25G1ParVerifyFinalCountTask;
	_ZTV25G1YoungGenerationCounters;
	_ZTV25InterpreterMacroAssembler;
	_ZTV25MarkFromDirtyCardsClosure;
	_ZTV25MarkRefsIntoVerifyClosure;
	_ZTV25OldRegionSetMtSafeChecker;
	_ZTV25ParNewRefEnqueueTaskProxy;
	_ZTV25ParNewRefProcTaskExecutor;
	_ZTV25ParScanWithBarrierClosure;
	_ZTV25PrintSystemPropertiesDCmd;
	_ZTV25RegisterNMethodOopClosure;
	_ZTV25ScanClosureWithParBarrier;
	_ZTV25SpaceClosureRegionClosure;
	_ZTV25StealRegionCompactionTask;
	_ZTV25TearDownRegionSetsClosure;
	_ZTV25VM_G1CollectForAllocation;
	_ZTV25VM_GetMultipleStackTraces;
	_ZTV25VM_JNIFunctionTableCopier;
	_ZTV25VerifyObjsInRegionClosure;
	_ZTV25VerifyRegionRemSetClosure;
	_ZTV26AbstractGangTaskWOopQueues;
	_ZTV26CleanExtraDataKlassClosure;
	_ZTV26G1NoteEndOfConcMarkClosure;
	_ZTV26G1VerifyCodeRootOopClosure;
	_ZTV26GCThresholdUpdaterConstant;
	_ZTV26GenPrepareForVerifyClosure;
	_ZTV26GenerationBlockSizeClosure;
	_ZTV26JfrCheckpointThreadClosure;
	_ZTV26JfrClassLoaderStatsClosure;
	_ZTV26JfrDumpFlightRecordingDCmd;
	_ZTV26JfrStopFlightRecordingDCmd;
	_ZTV26MallocAllocationSiteWalker;
	_ZTV26MarkFromRootsVerifyClosure;
	_ZTV26MarkRefsIntoAndScanClosure;
	_ZTV26NoHeaderExtendedOopClosure;
	_ZTV26PSEvacuateFollowersClosure;
	_ZTV26PSGCAdaptivePolicyCounters;
	_ZTV26PSScavengeFromKlassClosure;
	_ZTV26ReleaseJavaMonitorsClosure;
	_ZTV26VM_GC_SendObjectCountEvent;
	_ZTV26VM_GenCollectForAllocation;
	_ZTV26VM_PopulateDumpSharedSpace;
	_ZTV26VM_WhiteBoxCleanMethodData;
	_ZTV26YieldingFlexibleGangWorker;
	_ZTV26trampoline_stub_Relocation;
	_ZTV27ASConcurrentMarkSweepPolicy;
	_ZTV27AbstractRefProcTaskExecutor;
	_ZTV27AggregateCountDataHRClosure;
	_ZTV27BlockOffsetArrayContigSpace;
	_ZTV27CMSDrainMarkingStackClosure;
	_ZTV27CMSGCAdaptivePolicyCounters;
	_ZTV27CMSPrecleanRefsYieldClosure;
	_ZTV27ClassLoaderStatsVMOperation;
	_ZTV27CleanExtraDataMethodClosure;
	_ZTV27FinalCountDataUpdateClosure;
	_ZTV27G1VerifyCodeRootBlobClosure;
	_ZTV27GenEnsureParsabilityClosure;
	_ZTV27GenerationBlockIsObjClosure;
	_ZTV27GenerationBlockStartClosure;
	_ZTV27GenerationObjIterateClosure;
	_ZTV27GenerationOopIterateClosure;
	_ZTV27InterpreterCodeletInterface;
	_ZTV27JfrCheckFlightRecordingDCmd;
	_ZTV27JfrStartFlightRecordingDCmd;
	_ZTV27JvmtiTagHashmapEntryClosure;
	_ZTV27MetaspaceObjectTypeConstant;
	_ZTV27MonitorInflateCauseConstant;
	_ZTV27ParEvacuateFollowersClosure;
	_ZTV27RebuildRSOutOfRegionClosure;
	_ZTV27RefineCardTableEntryClosure;
	_ZTV27RemoveForwardPointerClosure;
	_ZTV27SurvivorContiguousSpacePool;
	_ZTV27TimePartitionPhasesIterator;
	_ZTV27UnregisterNMethodOopClosure;
	_ZTV27VM_GenCollectFullConcurrent;
	_ZTV27VM_GetThreadListStackTraces;
	_ZTV27VerifyKlassOopsKlassClosure;
	_ZTV27opt_virtual_call_Relocation;
	_ZTV28CompactibleFreeListSpacePool;
	_ZTV28DynInterpreterCodeletClosure;
	_ZTV28G1CMDrainMarkingStackClosure;
	_ZTV28G1CMKeepAliveAndDrainClosure;
	_ZTV28G1FreeHumongousRegionClosure;
	_ZTV28G1ParPreserveCMReferentsTask;
	_ZTV28InterpretedArgumentOopFinder;
	_ZTV28IterateOverHeapObjectClosure;
	_ZTV28OneContigSpaceCardGeneration;
	_ZTV28ParScanWithoutBarrierClosure;
	_ZTV28PostCompactionPrinterClosure;
	_ZTV28RebuildStrongCodeRootClosure;
	_ZTV28SurvivorSpacePrecleanClosure;
	_ZTV28TwoGenerationCollectorPolicy;
	_ZTV29CMCheckpointRootsFinalClosure;
	_ZTV29CMSInnerParMarkAndPushClosure;
	_ZTV29ConcurrentMarkSweepGeneration;
	_ZTV29CountNonCleanMemRegionClosure;
	_ZTV29G1BlockOffsetArrayContigSpace;
	_ZTV29G1InvokeIfNotTriggeredClosure;
	_ZTV29G1ParEvacuateFollowersClosure;
	_ZTV29G1StringSymbolTableUnlinkTask;
	_ZTV29G1UpdateRSOrPushRefOopClosure;
	_ZTV29GenerationIsInReservedClosure;
	_ZTV29InitInterpreterCodeletClosure;
	_ZTV29MetadataAwareOopsInGenClosure;
	_ZTV29MethodHandlesAdapterGenerator;
	_ZTV29ObjectCountEventSenderClosure;
	_ZTV29RemoveSelfForwardPtrHRClosure;
	_ZTV29ScanMarkedObjectsAgainClosure;
	_ZTV29VM_G1SendHeapRegionInfoEvents;
	_ZTV29VM_GetCurrentContendedMonitor;
	_ZTV29VM_ParallelGCFailedAllocation;
	_ZTV29VerifyLiveObjectDataHRClosure;
	_ZTV29VerifyObjectStartArrayClosure;
	_ZTV29VirtualMemoryAllocationWalker;
	_ZTV2If;
	_ZTV30BlockOffsetArrayNonContigSpace;
	_ZTV30CMBitMapMappingChangedListener;
	_ZTV30CMSParDrainMarkingStackClosure;
	_ZTV30G1ParRemoveSelfForwardPtrsTask;
	_ZTV30G1RegionMappingChangedListener;
	_ZTV30G1SATBCardTableLoggingModRefBS;
	_ZTV30IterateOopClosureRegionClosure;
	_ZTV30JfrClassLoaderStatsVMOperation;
	_ZTV30JfrConfigureFlightRecorderDCmd;
	_ZTV30JvmtiDynamicCodeEventCollector;
	_ZTV30Par_MarkRefsIntoAndScanClosure;
	_ZTV30RemoveSelfForwardPtrObjClosure;
	_ZTV30VM_G1OperationWithAllocRequest;
	_ZTV30VerifyStrongCodeRootOopClosure;
	_ZTV31ASConcurrentMarkSweepGeneration;
	_ZTV31EvacuateFollowersClosureGeneral;
	_ZTV31G1StringDedupUnlinkOrOopsDoTask;
	_ZTV31GenerationSafeObjIterateClosure;
	_ZTV31HumongousRegionSetMtSafeChecker;
	_ZTV31IterateThroughHeapObjectClosure;
	_ZTV31JfrUnlockCommercialFeaturesDCmd;
	_ZTV31VM_CollectForMetadataAllocation;
	_ZTV32ClearLoggedCardTableEntryClosure;
	_ZTV32G1PrintRegionLivenessInfoClosure;
	_ZTV32JvmtiVMObjectAllocEventCollector;
	_ZTV32ParRootScanWithoutBarrierClosure;
	_ZTV33HasAccumulatedModifiedOopsClosure;
	_ZTV33IterateObjectClosureRegionClosure;
	_ZTV33MasterFreeRegionListMtSafeChecker;
	_ZTV34CMSConcMarkingTerminatorTerminator;
	_ZTV34G1CardCountsMappingChangedListener;
	_ZTV34RedirtyLoggedCardTableEntryClosure;
	_ZTV35G1RegionsLargerThanCommitSizeMapper;
	_ZTV35VerifyStrongCodeRootCodeBlobClosure;
	_ZTV36G1RegionsSmallerThanCommitSizeMapper;
	_ZTV36ParRootScanWithBarrierTwoGensClosure;
	_ZTV36SecondaryFreeRegionListMtSafeChecker;
	_ZTV37JfrJavaEventWriterNotificationClosure;
	_ZTV38G1InCSetStateFastTestBiasedMappedArray;
	_ZTV38ScanMarkedObjectsAgainCarefullyClosure;
	_ZTV3Op2;
	_ZTV3Phi;
	_ZTV42RegisterHumongousWithInCSetFastTestClosure;
	_ZTV43RefineRecordRefsIntoCSCardTableEntryClosure;
	_ZTV45G1SATBCardTableLoggingModRefBSChangedListener;
	_ZTV46G1BlockOffsetSharedArrayMappingChangedListener;
	_ZTV4Base;
	_ZTV4DCmd;
	_ZTV4Goto;
	_ZTV4IfOp;
	_ZTV5Klass;
	_ZTV5Local;
	_ZTV5Space;
	_ZTV5StackI12ObjArrayTaskL10MemoryType5EE;
	_ZTV5StackI8StarTaskL10MemoryType1EE;
	_ZTV5StackI8StarTaskL10MemoryType5EE;
	_ZTV5StackIP11markOopDescL10MemoryType5EE;
	_ZTV5StackIP5KlassL10MemoryType5EE;
	_ZTV5StackIP7_jclassL10MemoryType7EE;
	_ZTV5StackIP7oopDescL10MemoryType5EE;
	_ZTV5StackIPK5KlassL10MemoryType14EE;
	_ZTV5StackIjL10MemoryType7EE;
	_ZTV5Throw;
	_ZTV6AbsSeq;
	_ZTV6CMTask;
	_ZTV6GCTask;
	_ZTV6Invoke;
	_ZTV6LIR_Op;
	_ZTV6MemBar;
	_ZTV6Method;
	_ZTV6RFrame;
	_ZTV6Return;
	_ZTV6Switch;
	_ZTV6Thread;
	_ZTV6ciType;
	_ZTV6vframe;
	_ZTV6vmNode;
	_ZTV7BitData;
	_ZTV7Convert;
	_ZTV7GCPhase;
	_ZTV7GCStats;
	_ZTV7GCTimer;
	_ZTV7IntType;
	_ZTV7LIR_Op0;
	_ZTV7LIR_Op1;
	_ZTV7LIR_Op2;
	_ZTV7LIR_Op3;
	_ZTV7LogicOp;
	_ZTV7NMTDCmd;
	_ZTV7RetData;
	_ZTV7ShiftOp;
	_ZTV7TypeSet;
	_ZTV7VM_Exit;
	_ZTV7ciArray;
	_ZTV7ciKlass;
	_ZTV7nmethod;
	_ZTV8BlockEnd;
	_ZTV8CodeBlob;
	_ZTV8CodeStub;
	_ZTV8Compiler;
	_ZTV8Constant;
	_ZTV8EventLog;
	_ZTV8G1RemSet;
	_ZTV8GCTracer;
	_ZTV8HelpDCmd;
	_ZTV8JumpData;
	_ZTV8LongType;
	_ZTV8Metadata;
	_ZTV8NegateOp;
	_ZTV8NewArray;
	_ZTV8OsrEntry;
	_ZTV8PSOldGen;
	_ZTV8PerfData;
	_ZTV8PerfLong;
	_ZTV8PtrQueue;
	_ZTV8RootType;
	_ZTV8TypeCast;
	_ZTV8UnsafeOp;
	_ZTV8VMThread;
	_ZTV8VM_Dummy;
	_ZTV8VoidType;
	_ZTV8WorkGang;
	_ZTV8ciMethod;
	_ZTV8ciObject;
	_ZTV8ciSymbol;
	_ZTV8fdStream;
	_ZTV8stubNode;
	_ZTV9ArrayData;
	_ZTV9ArrayType;
	_ZTV9Assembler;
	_ZTV9CMCleanUp;
	_ZTV9CMSTracer;
	_ZTV9CheckCast;
	_ZTV9ClassType;
	_ZTV9CompareOp;
	_ZTV9DepChange;
	_ZTV9EdenSpace;
	_ZTV9FloatType;
	_ZTV9G1ParTask;
	_ZTV9GCHeapLog;
	_ZTV9GenRemSet;
	_ZTV9Intrinsic;
	_ZTV9LIR_Const;
	_ZTV9LoadField;
	_ZTV9NullCheck;
	_ZTV9NumberSeq;
	_ZTV9PcFetcher;
	_ZTV9StealTask;
	_ZTV9TypeCheck;
	_ZTV9VM_Verify;
	_ZTV9ValueType;
	_ZTV9ciBitData;
	_ZTV9ciRetData;
	_ZTV9xmlStream;
	_ZTVN11FileMapInfo13FileMapHeaderE;
	_ZTVN11FileMapInfo17FileMapHeaderBaseE;
	_ZTVN13CleanCallback28PointsIntoHRDetectionClosureE;
	_ZTVN14KlassInfoTable16AllClassesFinderE;
	_ZTVN15G1CollectedHeap26HumongousReclaimCandidatesE;
	_ZTVN16DefNewGeneration14IsAliveClosureE;
	_ZTVN16DefNewGeneration16KeepAliveClosureE;
	_ZTVN16DefNewGeneration20FastKeepAliveClosureE;
	_ZTVN16DefNewGeneration24EvacuateFollowersClosureE;
	_ZTVN16DefNewGeneration28FastEvacuateFollowersClosureE;
	_ZTVN16GenCollectedHeap10GenClosureE;
	_ZTVN17G1CodeBlobClosure29HeapRegionGatheringOopClosureE;
	_ZTVN17PSParallelCompact14IsAliveClosureE;
	_ZTVN17PSParallelCompact16KeepAliveClosureE;
	_ZTVN17PSParallelCompact18AdjustKlassClosureE;
	_ZTVN17PSParallelCompact18FollowKlassClosureE;
	_ZTVN17PSParallelCompact18FollowStackClosureE;
	_ZTVN17PSParallelCompact18MarkAndPushClosureE;
	_ZTVN17PSParallelCompact20AdjustPointerClosureE;
	_ZTVN18InterpreterRuntime25SignatureHandlerGeneratorE;
	_ZTVN18VM_RedefineClasses10CheckClassE;
	_ZTVN18VM_RedefineClasses25AdjustCpoolCacheAndVtableE;
	_ZTVN19TemplateInterpreter25InterpreterCodeletClosureE;
	_ZTVN20RangeCheckEliminator12VerificationE;
	_ZTVN20RangeCheckEliminator7VisitorE;
	_ZTVN27AbstractRefProcTaskExecutor11EnqueueTaskE;
	_ZTVN27AbstractRefProcTaskExecutor11ProcessTaskE;
	_ZTVN27VerifyKlassOopsKlassClosure22VerifyKlassOopsClosureE;
	_ZTVN2os19SuspendedThreadTaskE;
	_ZTVN2os23CrashProtectionCallbackE;
	_ZTVN36G1RegionsSmallerThanCommitSizeMapper19CommitRefcountArrayE;
	_ZTVN9G1ParTask12G1CLDClosureIL6G1Mark0EEE;
	_ZTVN9G1ParTask12G1CLDClosureIL6G1Mark1EEE;
	_ZTVN9G1ParTask12G1CLDClosureIL6G1Mark2EEE;
	_ZTVN9MarkSweep14IsAliveClosureE;
	_ZTVN9MarkSweep16KeepAliveClosureE;
	_ZTVN9MarkSweep17FollowRootClosureE;
	_ZTVN9MarkSweep18FollowStackClosureE;
	_ZTVN9MarkSweep18MarkAndPushClosureE;
	_ZTVN9MarkSweep20AdjustPointerClosureE;
	_ZTVN9Metaspace18AllocRecordClosureE;
	_ZTVZN12JvmtiEnvBase27check_for_periodic_clean_upEvE28ThreadInsideIterationClosure;
	gHotSpotVMIntConstantEntryArrayStride;
	gHotSpotVMIntConstantEntryNameOffset;
	gHotSpotVMIntConstantEntryValueOffset;
	gHotSpotVMIntConstants;
	gHotSpotVMLongConstantEntryArrayStride;
	gHotSpotVMLongConstantEntryNameOffset;
	gHotSpotVMLongConstantEntryValueOffset;
	gHotSpotVMLongConstants;
	gHotSpotVMStructEntryAddressOffset;
	gHotSpotVMStructEntryArrayStride;
	gHotSpotVMStructEntryFieldNameOffset;
	gHotSpotVMStructEntryIsStaticOffset;
	gHotSpotVMStructEntryOffsetOffset;
	gHotSpotVMStructEntryTypeNameOffset;
	gHotSpotVMStructEntryTypeStringOffset;
	gHotSpotVMStructs;
	gHotSpotVMTypeEntryArrayStride;
	gHotSpotVMTypeEntryIsIntegerTypeOffset;
	gHotSpotVMTypeEntryIsOopTypeOffset;
	gHotSpotVMTypeEntryIsUnsignedOffset;
	gHotSpotVMTypeEntrySizeOffset;
	gHotSpotVMTypeEntrySuperclassNameOffset;
	gHotSpotVMTypeEntryTypeNameOffset;
	gHotSpotVMTypes;
